target datalayout = "e-m:e-p270:32:32-p271:32:32-p272:64:64-i64:64-i128:128-f80:128-n8:16:32:64-S128"
target triple = "x86_64-pc-linux-gnu"

; Function Attrs: nounwind uwtable
define dso_local i32 @ipc_server_run(ptr noundef %0, ptr noundef %1, ptr noundef %2, ptr noundef %3) #0 {
  %5 = alloca i32, align 4
  %6 = alloca ptr, align 8
  %7 = alloca ptr, align 8
  %8 = alloca ptr, align 8
  %9 = alloca ptr, align 8
  %10 = alloca ptr, align 8
  %11 = alloca i32, align 4
  %12 = alloca i32, align 4
  store ptr %0, ptr %6, align 8, !tbaa !4
  store ptr %1, ptr %7, align 8, !tbaa !9
  store ptr %2, ptr %8, align 8, !tbaa !11
  store ptr %3, ptr %9, align 8, !tbaa !11
  call void @llvm.lifetime.start.p0(i64 8, ptr %10) #3
  store ptr null, ptr %10, align 8, !tbaa !12
  call void @llvm.lifetime.start.p0(i64 4, ptr %11) #3
  %13 = load ptr, ptr %6, align 8, !tbaa !4
  %14 = load ptr, ptr %7, align 8, !tbaa !9
  %15 = load ptr, ptr %8, align 8, !tbaa !11
  %16 = load ptr, ptr %9, align 8, !tbaa !11
  %17 = call i32 @ipc_server_init_async(ptr noundef %10, ptr noundef %13, ptr noundef %14, ptr noundef %15, ptr noundef %16)
  store i32 %17, ptr %11, align 4, !tbaa !14
  %18 = load i32, ptr %11, align 4, !tbaa !14
  %19 = icmp ne i32 %18, 0
  br i1 %19, label %20, label %22

20:                                               ; preds = %4
  %21 = load i32, ptr %11, align 4, !tbaa !14
  store i32 %21, ptr %5, align 4
  store i32 1, ptr %12, align 4
  br label %28

22:                                               ; preds = %4
  %23 = load ptr, ptr %10, align 8, !tbaa !12
  call void @ipc_server_start_async(ptr noundef %23)
  %24 = load ptr, ptr %10, align 8, !tbaa !12
  %25 = call i32 @ipc_server_await(ptr noundef %24)
  store i32 %25, ptr %11, align 4, !tbaa !14
  %26 = load ptr, ptr %10, align 8, !tbaa !12
  call void @ipc_server_free(ptr noundef %26)
  %27 = load i32, ptr %11, align 4, !tbaa !14
  store i32 %27, ptr %5, align 4
  store i32 1, ptr %12, align 4
  br label %28

28:                                               ; preds = %22, %20
  call void @llvm.lifetime.end.p0(i64 4, ptr %11) #3
  call void @llvm.lifetime.end.p0(i64 8, ptr %10) #3
  %29 = load i32, ptr %5, align 4
  ret i32 %29
}

; Function Attrs: nocallback nofree nosync nounwind willreturn memory(argmem: readwrite)
declare void @llvm.lifetime.start.p0(i64 immarg, ptr captures(none)) #1

declare i32 @ipc_server_init_async(ptr noundef, ptr noundef, ptr noundef, ptr noundef, ptr noundef) #2

declare void @ipc_server_start_async(ptr noundef) #2

declare i32 @ipc_server_await(ptr noundef) #2

declare void @ipc_server_free(ptr noundef) #2

; Function Attrs: nocallback nofree nosync nounwind willreturn memory(argmem: readwrite)
declare void @llvm.lifetime.end.p0(i64 immarg, ptr captures(none)) #1


!llvm.module.flags = !{!0, !1, !2, !3}

!0 = !{i32 1, !"wchar_size", i32 4}
!1 = !{i32 8, !"PIC Level", i32 2}
!2 = !{i32 7, !"PIE Level", i32 2}
!3 = !{i32 7, !"uwtable", i32 2}
!4 = !{!5, !5, i64 0}
!5 = !{!"p1 omnipotent char", !6, i64 0}
!6 = !{!"any pointer", !7, i64 0}
!7 = !{!"omnipotent char", !8, i64 0}
!8 = !{!"Simple C/C++ TBAA"}
!9 = !{!10, !10, i64 0}
!10 = !{!"p1 _ZTS15ipc_server_opts", !6, i64 0}
!11 = !{!6, !6, i64 0}
!12 = !{!13, !13, i64 0}
!13 = !{!"p1 _ZTS15ipc_server_data", !6, i64 0}
!14 = !{!15, !15, i64 0}
!15 = !{!"int", !7, i64 0}
