; ModuleID = 'bench/git/original/ipc-shared.ll'
source_filename = "bench/git/original/ipc-shared.ll"
target datalayout = "e-m:e-p270:32:32-p271:32:32-p272:64:64-i64:64-i128:128-f80:128-n8:16:32:64-S128"
target triple = "x86_64-pc-linux-gnu"

; Function Attrs: nounwind uwtable
define dso_local i32 @ipc_server_run(ptr noundef %0, ptr noundef %1, ptr noundef %2, ptr noundef %3) local_unnamed_addr #0 {
  %5 = alloca ptr, align 8
  call void @llvm.lifetime.start.p0(i64 8, ptr nonnull %5) #3
  store ptr null, ptr %5, align 8, !tbaa !4
  %6 = call i32 @ipc_server_init_async(ptr noundef nonnull %5, ptr noundef %0, ptr noundef %1, ptr noundef %2, ptr noundef %3) #3
  %.not = icmp eq i32 %6, 0
  br i1 %.not, label %7, label %12

7:                                                ; preds = %4
  %8 = load ptr, ptr %5, align 8, !tbaa !4
  call void @ipc_server_start_async(ptr noundef %8) #3
  %9 = load ptr, ptr %5, align 8, !tbaa !4
  %10 = call i32 @ipc_server_await(ptr noundef %9) #3
  %11 = load ptr, ptr %5, align 8, !tbaa !4
  call void @ipc_server_free(ptr noundef %11) #3
  br label %12

12:                                               ; preds = %4, %7
  %.0 = phi i32 [ %10, %7 ], [ %6, %4 ]
  call void @llvm.lifetime.end.p0(i64 8, ptr nonnull %5) #3
  ret i32 %.0
}

; Function Attrs: mustprogress nocallback nofree nosync nounwind willreturn memory(argmem: readwrite)
declare void @llvm.lifetime.start.p0(i64 immarg, ptr captures(none)) #1

declare i32 @ipc_server_init_async(ptr noundef, ptr noundef, ptr noundef, ptr noundef, ptr noundef) local_unnamed_addr #2

declare void @ipc_server_start_async(ptr noundef) local_unnamed_addr #2

declare i32 @ipc_server_await(ptr noundef) local_unnamed_addr #2

declare void @ipc_server_free(ptr noundef) local_unnamed_addr #2

; Function Attrs: mustprogress nocallback nofree nosync nounwind willreturn memory(argmem: readwrite)
declare void @llvm.lifetime.end.p0(i64 immarg, ptr captures(none)) #1


!llvm.module.flags = !{!0, !1, !2, !3}

!0 = !{i32 1, !"wchar_size", i32 4}
!1 = !{i32 8, !"PIC Level", i32 2}
!2 = !{i32 7, !"PIE Level", i32 2}
!3 = !{i32 7, !"uwtable", i32 2}
!4 = !{!5, !5, i64 0}
!5 = !{!"p1 _ZTS15ipc_server_data", !6, i64 0}
!6 = !{!"any pointer", !7, i64 0}
!7 = !{!"omnipotent char", !8, i64 0}
!8 = !{!"Simple C/C++ TBAA"}
